; ModuleID = 'source-C-CXX/12/554.cpp'
source_filename = "source-C-CXX/12/554.cpp"
target datalayout = "e-m:e-p270:32:32-p271:32:32-p272:64:64-i64:64-f80:128-n8:16:32:64-S128"
target triple = "x86_64-pc-linux-gnu"

%"class.std::ios_base::Init" = type { i8 }
%"class.std::basic_istream" = type { i32 (...)**, i64, %"class.std::basic_ios" }
%"class.std::basic_ios" = type { %"class.std::ios_base", %"class.std::basic_ostream"*, i8, i8, %"class.std::basic_streambuf"*, %"class.std::ctype"*, %"class.std::num_put"*, %"class.std::num_get"* }
%"class.std::ios_base" = type { i32 (...)**, i64, i64, i32, i32, i32, %"struct.std::ios_base::_Callback_list"*, %"struct.std::ios_base::_Words", [8 x %"struct.std::ios_base::_Words"], i32, %"struct.std::ios_base::_Words"*, %"class.std::locale" }
%"struct.std::ios_base::_Callback_list" = type { %"struct.std::ios_base::_Callback_list"*, void (i32, %"class.std::ios_base"*, i32)*, i32, i32 }
%"struct.std::ios_base::_Words" = type { i8*, i64 }
%"class.std::locale" = type { %"class.std::locale::_Impl"* }
%"class.std::locale::_Impl" = type { i32, %"class.std::locale::facet"**, i64, %"class.std::locale::facet"**, i8** }
%"class.std::locale::facet" = type <{ i32 (...)**, i32, [4 x i8] }>
%"class.std::basic_ostream" = type { i32 (...)**, %"class.std::basic_ios" }
%"class.std::basic_streambuf" = type { i32 (...)**, i8*, i8*, i8*, i8*, i8*, i8*, %"class.std::locale" }
%"class.std::ctype" = type <{ %"class.std::locale::facet.base", [4 x i8], %struct.__locale_struct*, i8, [7 x i8], i32*, i32*, i16*, i8, [256 x i8], [256 x i8], i8, [6 x i8] }>
%"class.std::locale::facet.base" = type <{ i32 (...)**, i32 }>
%struct.__locale_struct = type { [13 x %struct.__locale_data*], i16*, i32*, i32*, [13 x i8*] }
%struct.__locale_data = type opaque
%"class.std::num_put" = type { %"class.std::locale::facet.base", [4 x i8] }
%"class.std::num_get" = type { %"class.std::locale::facet.base", [4 x i8] }

@_ZStL8__ioinit = internal global %"class.std::ios_base::Init" zeroinitializer, align 1
@__dso_handle = external hidden global i8
@_ZSt3cin = external global %"class.std::basic_istream", align 8
@_ZSt4cout = external global %"class.std::basic_ostream", align 8
@.str = private unnamed_addr constant [2 x i8] c" \00", align 1
@llvm.global_ctors = appending global [1 x { i32, void ()*, i8* }] [{ i32, void ()*, i8* } { i32 65535, void ()* @_GLOBAL__sub_I_554.cpp, i8* null }]

declare void @_ZNSt8ios_base4InitC1Ev(%"class.std::ios_base::Init"* nonnull align 1 dereferenceable(1)) unnamed_addr #0

; Function Attrs: nounwind
declare void @_ZNSt8ios_base4InitD1Ev(%"class.std::ios_base::Init"* nonnull align 1 dereferenceable(1)) unnamed_addr #1

; Function Attrs: nofree nounwind
declare i32 @__cxa_atexit(void (i8*)*, i8*, i8*) local_unnamed_addr #2

; Function Attrs: mustprogress norecurse sspstrong uwtable
define dso_local i32 @main() local_unnamed_addr #3 {
  %1 = alloca i32, align 4
  %2 = alloca [20000 x i32], align 16
  %3 = bitcast i32* %1 to i8*
  call void @llvm.lifetime.start.p0i8(i64 4, i8* nonnull %3) #7
  %4 = bitcast [20000 x i32]* %2 to i8*
  call void @llvm.lifetime.start.p0i8(i64 80000, i8* nonnull %4) #7
  %5 = call nonnull align 8 dereferenceable(16) %"class.std::basic_istream"* @_ZNSirsERi(%"class.std::basic_istream"* nonnull align 8 dereferenceable(16) @_ZSt3cin, i32* nonnull align 4 dereferenceable(4) %1)
  %6 = load i32, i32* %1, align 4, !tbaa !5
  %7 = icmp sgt i32 %6, 0
  br i1 %7, label %16, label %11

8:                                                ; preds = %16
  %9 = getelementptr inbounds [20000 x i32], [20000 x i32]* %2, i64 0, i64 0
  %10 = load i32, i32* %9, align 16, !tbaa !5
  br label %11

11:                                               ; preds = %8, %0
  %12 = phi i32 [ %10, %8 ], [ undef, %0 ]
  %13 = call nonnull align 8 dereferenceable(8) %"class.std::basic_ostream"* @_ZNSolsEi(%"class.std::basic_ostream"* nonnull align 8 dereferenceable(8) @_ZSt4cout, i32 %12)
  %14 = load i32, i32* %1, align 4, !tbaa !5
  %15 = icmp sgt i32 %14, 1
  br i1 %15, label %24, label %107

16:                                               ; preds = %0, %16
  %17 = phi i64 [ %20, %16 ], [ 0, %0 ]
  %18 = getelementptr inbounds [20000 x i32], [20000 x i32]* %2, i64 0, i64 %17
  %19 = call nonnull align 8 dereferenceable(16) %"class.std::basic_istream"* @_ZNSirsERi(%"class.std::basic_istream"* nonnull align 8 dereferenceable(16) @_ZSt3cin, i32* nonnull align 4 dereferenceable(4) %18)
  %20 = add nuw nsw i64 %17, 1
  %21 = load i32, i32* %1, align 4, !tbaa !5
  %22 = sext i32 %21 to i64
  %23 = icmp slt i64 %20, %22
  br i1 %23, label %16, label %8, !llvm.loop !9

24:                                               ; preds = %11, %126
  %25 = phi i64 [ %131, %126 ], [ 0, %11 ]
  %26 = phi i32 [ %127, %126 ], [ %14, %11 ]
  %27 = phi i64 [ %128, %126 ], [ 1, %11 ]
  %28 = add i64 %25, -7
  %29 = lshr i64 %28, 3
  %30 = add nuw nsw i64 %29, 1
  %31 = add i64 %25, 1
  %32 = getelementptr inbounds [20000 x i32], [20000 x i32]* %2, i64 0, i64 %27
  %33 = load i32, i32* %32, align 4, !tbaa !5
  %34 = icmp ult i64 %31, 8
  br i1 %34, label %104, label %35

35:                                               ; preds = %24
  %36 = and i64 %31, -8
  %37 = insertelement <4 x i32> poison, i32 %33, i32 0
  %38 = shufflevector <4 x i32> %37, <4 x i32> poison, <4 x i32> zeroinitializer
  %39 = insertelement <4 x i32> poison, i32 %33, i32 0
  %40 = shufflevector <4 x i32> %39, <4 x i32> poison, <4 x i32> zeroinitializer
  %41 = and i64 %30, 1
  %42 = icmp ult i64 %28, 8
  br i1 %42, label %78, label %43

43:                                               ; preds = %35
  %44 = and i64 %30, 4611686018427387902
  br label %45

45:                                               ; preds = %45, %43
  %46 = phi i64 [ 0, %43 ], [ %75, %45 ]
  %47 = phi <4 x i32> [ zeroinitializer, %43 ], [ %73, %45 ]
  %48 = phi <4 x i32> [ zeroinitializer, %43 ], [ %74, %45 ]
  %49 = phi i64 [ %44, %43 ], [ %76, %45 ]
  %50 = getelementptr inbounds [20000 x i32], [20000 x i32]* %2, i64 0, i64 %46
  %51 = bitcast i32* %50 to <4 x i32>*
  %52 = load <4 x i32>, <4 x i32>* %51, align 16, !tbaa !5
  %53 = getelementptr inbounds i32, i32* %50, i64 4
  %54 = bitcast i32* %53 to <4 x i32>*
  %55 = load <4 x i32>, <4 x i32>* %54, align 16, !tbaa !5
  %56 = icmp eq <4 x i32> %52, %38
  %57 = icmp eq <4 x i32> %55, %40
  %58 = zext <4 x i1> %56 to <4 x i32>
  %59 = zext <4 x i1> %57 to <4 x i32>
  %60 = add <4 x i32> %47, %58
  %61 = add <4 x i32> %48, %59
  %62 = or i64 %46, 8
  %63 = getelementptr inbounds [20000 x i32], [20000 x i32]* %2, i64 0, i64 %62
  %64 = bitcast i32* %63 to <4 x i32>*
  %65 = load <4 x i32>, <4 x i32>* %64, align 16, !tbaa !5
  %66 = getelementptr inbounds i32, i32* %63, i64 4
  %67 = bitcast i32* %66 to <4 x i32>*
  %68 = load <4 x i32>, <4 x i32>* %67, align 16, !tbaa !5
  %69 = icmp eq <4 x i32> %65, %38
  %70 = icmp eq <4 x i32> %68, %40
  %71 = zext <4 x i1> %69 to <4 x i32>
  %72 = zext <4 x i1> %70 to <4 x i32>
  %73 = add <4 x i32> %60, %71
  %74 = add <4 x i32> %61, %72
  %75 = add nuw i64 %46, 16
  %76 = add i64 %49, -2
  %77 = icmp eq i64 %76, 0
  br i1 %77, label %78, label %45, !llvm.loop !11

78:                                               ; preds = %45, %35
  %79 = phi <4 x i32> [ undef, %35 ], [ %73, %45 ]
  %80 = phi <4 x i32> [ undef, %35 ], [ %74, %45 ]
  %81 = phi i64 [ 0, %35 ], [ %75, %45 ]
  %82 = phi <4 x i32> [ zeroinitializer, %35 ], [ %73, %45 ]
  %83 = phi <4 x i32> [ zeroinitializer, %35 ], [ %74, %45 ]
  %84 = icmp eq i64 %41, 0
  br i1 %84, label %98, label %85

85:                                               ; preds = %78
  %86 = getelementptr inbounds [20000 x i32], [20000 x i32]* %2, i64 0, i64 %81
  %87 = getelementptr inbounds i32, i32* %86, i64 4
  %88 = bitcast i32* %87 to <4 x i32>*
  %89 = load <4 x i32>, <4 x i32>* %88, align 16, !tbaa !5
  %90 = icmp eq <4 x i32> %89, %40
  %91 = zext <4 x i1> %90 to <4 x i32>
  %92 = add <4 x i32> %83, %91
  %93 = bitcast i32* %86 to <4 x i32>*
  %94 = load <4 x i32>, <4 x i32>* %93, align 16, !tbaa !5
  %95 = icmp eq <4 x i32> %94, %38
  %96 = zext <4 x i1> %95 to <4 x i32>
  %97 = add <4 x i32> %82, %96
  br label %98

98:                                               ; preds = %78, %85
  %99 = phi <4 x i32> [ %79, %78 ], [ %97, %85 ]
  %100 = phi <4 x i32> [ %80, %78 ], [ %92, %85 ]
  %101 = add <4 x i32> %100, %99
  %102 = call i32 @llvm.vector.reduce.add.v4i32(<4 x i32> %101)
  %103 = icmp eq i64 %31, %36
  br i1 %103, label %108, label %104

104:                                              ; preds = %24, %98
  %105 = phi i64 [ 0, %24 ], [ %36, %98 ]
  %106 = phi i32 [ 0, %24 ], [ %102, %98 ]
  br label %111

107:                                              ; preds = %126, %11
  call void @llvm.lifetime.end.p0i8(i64 80000, i8* nonnull %4) #7
  call void @llvm.lifetime.end.p0i8(i64 4, i8* nonnull %3) #7
  ret i32 0

108:                                              ; preds = %111, %98
  %109 = phi i32 [ %102, %98 ], [ %118, %111 ]
  %110 = icmp eq i32 %109, 0
  br i1 %110, label %121, label %126

111:                                              ; preds = %104, %111
  %112 = phi i64 [ %119, %111 ], [ %105, %104 ]
  %113 = phi i32 [ %118, %111 ], [ %106, %104 ]
  %114 = getelementptr inbounds [20000 x i32], [20000 x i32]* %2, i64 0, i64 %112
  %115 = load i32, i32* %114, align 4, !tbaa !5
  %116 = icmp eq i32 %115, %33
  %117 = zext i1 %116 to i32
  %118 = add nuw nsw i32 %113, %117
  %119 = add nuw nsw i64 %112, 1
  %120 = icmp eq i64 %119, %27
  br i1 %120, label %108, label %111, !llvm.loop !13

121:                                              ; preds = %108
  %122 = call nonnull align 8 dereferenceable(8) %"class.std::basic_ostream"* @_ZSt16__ostream_insertIcSt11char_traitsIcEERSt13basic_ostreamIT_T0_ES6_PKS3_l(%"class.std::basic_ostream"* nonnull align 8 dereferenceable(8) @_ZSt4cout, i8* nonnull getelementptr inbounds ([2 x i8], [2 x i8]* @.str, i64 0, i64 0), i64 1)
  %123 = load i32, i32* %32, align 4, !tbaa !5
  %124 = call nonnull align 8 dereferenceable(8) %"class.std::basic_ostream"* @_ZNSolsEi(%"class.std::basic_ostream"* nonnull align 8 dereferenceable(8) @_ZSt4cout, i32 %123)
  %125 = load i32, i32* %1, align 4, !tbaa !5
  br label %126

126:                                              ; preds = %121, %108
  %127 = phi i32 [ %125, %121 ], [ %26, %108 ]
  %128 = add nuw nsw i64 %27, 1
  %129 = sext i32 %127 to i64
  %130 = icmp slt i64 %128, %129
  %131 = add i64 %25, 1
  br i1 %130, label %24, label %107, !llvm.loop !15
}

; Function Attrs: argmemonly mustprogress nofree nosync nounwind willreturn
declare void @llvm.lifetime.start.p0i8(i64 immarg, i8* nocapture) #4

declare nonnull align 8 dereferenceable(16) %"class.std::basic_istream"* @_ZNSirsERi(%"class.std::basic_istream"* nonnull align 8 dereferenceable(16), i32* nonnull align 4 dereferenceable(4)) local_unnamed_addr #0

; Function Attrs: argmemonly mustprogress nofree nosync nounwind willreturn
declare void @llvm.lifetime.end.p0i8(i64 immarg, i8* nocapture) #4

declare nonnull align 8 dereferenceable(8) %"class.std::basic_ostream"* @_ZNSolsEi(%"class.std::basic_ostream"* nonnull align 8 dereferenceable(8), i32) local_unnamed_addr #0

declare nonnull align 8 dereferenceable(8) %"class.std::basic_ostream"* @_ZSt16__ostream_insertIcSt11char_traitsIcEERSt13basic_ostreamIT_T0_ES6_PKS3_l(%"class.std::basic_ostream"* nonnull align 8 dereferenceable(8), i8*, i64) local_unnamed_addr #0

; Function Attrs: sspstrong uwtable
define internal void @_GLOBAL__sub_I_554.cpp() #5 section ".text.startup" {
  tail call void @_ZNSt8ios_base4InitC1Ev(%"class.std::ios_base::Init"* nonnull align 1 dereferenceable(1) @_ZStL8__ioinit)
  %1 = tail call i32 @__cxa_atexit(void (i8*)* bitcast (void (%"class.std::ios_base::Init"*)* @_ZNSt8ios_base4InitD1Ev to void (i8*)*), i8* getelementptr inbounds (%"class.std::ios_base::Init", %"class.std::ios_base::Init"* @_ZStL8__ioinit, i64 0, i32 0), i8* nonnull @__dso_handle) #7
  ret void
}

; Function Attrs: nofree nosync nounwind readnone willreturn
declare i32 @llvm.vector.reduce.add.v4i32(<4 x i32>) #6


!llvm.module.flags = !{!0, !1, !2, !3}
!llvm.ident = !{!4}

!0 = !{i32 1, !"wchar_size", i32 4}
!1 = !{i32 7, !"PIC Level", i32 2}
!2 = !{i32 7, !"PIE Level", i32 2}
!3 = !{i32 7, !"uwtable", i32 1}
!4 = !{!"clang version 13.0.0"}
!5 = !{!6, !6, i64 0}
!6 = !{!"int", !7, i64 0}
!7 = !{!"omnipotent char", !8, i64 0}
!8 = !{!"Simple C++ TBAA"}
!9 = distinct !{!9, !10}
!10 = !{!"llvm.loop.mustprogress"}
!11 = distinct !{!11, !10, !12}
!12 = !{!"llvm.loop.isvectorized", i32 1}
!13 = distinct !{!13, !10, !14, !12}
!14 = !{!"llvm.loop.unroll.runtime.disable"}
!15 = distinct !{!15, !10}
